; ModuleID = '9/103.c'
source_filename = "9/103.c"
target datalayout = "e-m:e-p270:32:32-p271:32:32-p272:64:64-i64:64-f80:128-n8:16:32:64-S128"
target triple = "x86_64-pc-linux-gnu"

%struct.patient = type { i32, [10 x i8] }

@.str = private unnamed_addr constant [3 x i8] c"%d\00", align 1
@.str.1 = private unnamed_addr constant [3 x i8] c"%s\00", align 1
@.str.2 = private unnamed_addr constant [4 x i8] c"%s\0A\00", align 1

; Function Attrs: noinline nounwind uwtable
define dso_local void @main() #0 {
  %1 = alloca i32, align 4
  %2 = alloca i32, align 4
  %3 = alloca i32, align 4
  %4 = alloca i32, align 4
  %5 = alloca i32, align 4
  %6 = alloca i32, align 4
  %7 = alloca [100 x %struct.patient], align 16
  %8 = alloca [100 x %struct.patient], align 16
  %9 = alloca [100 x %struct.patient], align 16
  %10 = alloca [100 x %struct.patient], align 16
  %11 = alloca %struct.patient, align 4
  store i32 0, i32* %3, align 4
  store i32 0, i32* %4, align 4
  %12 = call i32 (i8*, ...) @__isoc99_scanf(i8* getelementptr inbounds ([3 x i8], [3 x i8]* @.str, i64 0, i64 0), i32* %1)
  store i32 0, i32* %2, align 4
  br label %13

13:                                               ; preds = %29, %0
  %14 = load i32, i32* %2, align 4
  %15 = load i32, i32* %1, align 4
  %16 = icmp slt i32 %14, %15
  br i1 %16, label %17, label %32

17:                                               ; preds = %13
  %18 = load i32, i32* %2, align 4
  %19 = sext i32 %18 to i64
  %20 = getelementptr inbounds [100 x %struct.patient], [100 x %struct.patient]* %7, i64 0, i64 %19
  %21 = getelementptr inbounds %struct.patient, %struct.patient* %20, i32 0, i32 1
  %22 = getelementptr inbounds [10 x i8], [10 x i8]* %21, i64 0, i64 0
  %23 = call i32 (i8*, ...) @__isoc99_scanf(i8* getelementptr inbounds ([3 x i8], [3 x i8]* @.str.1, i64 0, i64 0), i8* %22)
  %24 = load i32, i32* %2, align 4
  %25 = sext i32 %24 to i64
  %26 = getelementptr inbounds [100 x %struct.patient], [100 x %struct.patient]* %7, i64 0, i64 %25
  %27 = getelementptr inbounds %struct.patient, %struct.patient* %26, i32 0, i32 0
  %28 = call i32 (i8*, ...) @__isoc99_scanf(i8* getelementptr inbounds ([3 x i8], [3 x i8]* @.str, i64 0, i64 0), i32* %27)
  br label %29

29:                                               ; preds = %17
  %30 = load i32, i32* %2, align 4
  %31 = add nsw i32 %30, 1
  store i32 %31, i32* %2, align 4
  br label %13

32:                                               ; preds = %13
  store i32 0, i32* %2, align 4
  br label %33

33:                                               ; preds = %67, %32
  %34 = load i32, i32* %2, align 4
  %35 = load i32, i32* %1, align 4
  %36 = icmp slt i32 %34, %35
  br i1 %36, label %37, label %70

37:                                               ; preds = %33
  %38 = load i32, i32* %2, align 4
  %39 = sext i32 %38 to i64
  %40 = getelementptr inbounds [100 x %struct.patient], [100 x %struct.patient]* %7, i64 0, i64 %39
  %41 = getelementptr inbounds %struct.patient, %struct.patient* %40, i32 0, i32 0
  %42 = load i32, i32* %41, align 16
  %43 = icmp sge i32 %42, 60
  br i1 %43, label %44, label %55

44:                                               ; preds = %37
  %45 = load i32, i32* %3, align 4
  %46 = sext i32 %45 to i64
  %47 = getelementptr inbounds [100 x %struct.patient], [100 x %struct.patient]* %8, i64 0, i64 %46
  %48 = load i32, i32* %2, align 4
  %49 = sext i32 %48 to i64
  %50 = getelementptr inbounds [100 x %struct.patient], [100 x %struct.patient]* %7, i64 0, i64 %49
  %51 = bitcast %struct.patient* %47 to i8*
  %52 = bitcast %struct.patient* %50 to i8*
  call void @llvm.memcpy.p0i8.p0i8.i64(i8* align 16 %51, i8* align 16 %52, i64 16, i1 false)
  %53 = load i32, i32* %3, align 4
  %54 = add nsw i32 %53, 1
  store i32 %54, i32* %3, align 4
  br label %66

55:                                               ; preds = %37
  %56 = load i32, i32* %4, align 4
  %57 = sext i32 %56 to i64
  %58 = getelementptr inbounds [100 x %struct.patient], [100 x %struct.patient]* %9, i64 0, i64 %57
  %59 = load i32, i32* %2, align 4
  %60 = sext i32 %59 to i64
  %61 = getelementptr inbounds [100 x %struct.patient], [100 x %struct.patient]* %7, i64 0, i64 %60
  %62 = bitcast %struct.patient* %58 to i8*
  %63 = bitcast %struct.patient* %61 to i8*
  call void @llvm.memcpy.p0i8.p0i8.i64(i8* align 16 %62, i8* align 16 %63, i64 16, i1 false)
  %64 = load i32, i32* %4, align 4
  %65 = add nsw i32 %64, 1
  store i32 %65, i32* %4, align 4
  br label %66

66:                                               ; preds = %55, %44
  br label %67

67:                                               ; preds = %66
  %68 = load i32, i32* %2, align 4
  %69 = add nsw i32 %68, 1
  store i32 %69, i32* %2, align 4
  br label %33

70:                                               ; preds = %33
  %71 = load i32, i32* %3, align 4
  %72 = sub nsw i32 %71, 1
  store i32 %72, i32* %6, align 4
  store i32 1, i32* %3, align 4
  br label %73

73:                                               ; preds = %122, %70
  %74 = load i32, i32* %3, align 4
  %75 = load i32, i32* %6, align 4
  %76 = icmp sle i32 %74, %75
  br i1 %76, label %77, label %125

77:                                               ; preds = %73
  %78 = load i32, i32* %6, align 4
  store i32 %78, i32* %5, align 4
  br label %79

79:                                               ; preds = %118, %77
  %80 = load i32, i32* %5, align 4
  %81 = load i32, i32* %3, align 4
  %82 = icmp sge i32 %80, %81
  br i1 %82, label %83, label %121

83:                                               ; preds = %79
  %84 = load i32, i32* %5, align 4
  %85 = sext i32 %84 to i64
  %86 = getelementptr inbounds [100 x %struct.patient], [100 x %struct.patient]* %8, i64 0, i64 %85
  %87 = getelementptr inbounds %struct.patient, %struct.patient* %86, i32 0, i32 0
  %88 = load i32, i32* %87, align 16
  %89 = load i32, i32* %5, align 4
  %90 = sub nsw i32 %89, 1
  %91 = sext i32 %90 to i64
  %92 = getelementptr inbounds [100 x %struct.patient], [100 x %struct.patient]* %8, i64 0, i64 %91
  %93 = getelementptr inbounds %struct.patient, %struct.patient* %92, i32 0, i32 0
  %94 = load i32, i32* %93, align 16
  %95 = icmp sgt i32 %88, %94
  br i1 %95, label %96, label %117

96:                                               ; preds = %83
  %97 = load i32, i32* %5, align 4
  %98 = sext i32 %97 to i64
  %99 = getelementptr inbounds [100 x %struct.patient], [100 x %struct.patient]* %8, i64 0, i64 %98
  %100 = bitcast %struct.patient* %11 to i8*
  %101 = bitcast %struct.patient* %99 to i8*
  call void @llvm.memcpy.p0i8.p0i8.i64(i8* align 4 %100, i8* align 16 %101, i64 16, i1 false)
  %102 = load i32, i32* %5, align 4
  %103 = sext i32 %102 to i64
  %104 = getelementptr inbounds [100 x %struct.patient], [100 x %struct.patient]* %8, i64 0, i64 %103
  %105 = load i32, i32* %5, align 4
  %106 = sub nsw i32 %105, 1
  %107 = sext i32 %106 to i64
  %108 = getelementptr inbounds [100 x %struct.patient], [100 x %struct.patient]* %8, i64 0, i64 %107
  %109 = bitcast %struct.patient* %104 to i8*
  %110 = bitcast %struct.patient* %108 to i8*
  call void @llvm.memcpy.p0i8.p0i8.i64(i8* align 16 %109, i8* align 16 %110, i64 16, i1 false)
  %111 = load i32, i32* %5, align 4
  %112 = sub nsw i32 %111, 1
  %113 = sext i32 %112 to i64
  %114 = getelementptr inbounds [100 x %struct.patient], [100 x %struct.patient]* %8, i64 0, i64 %113
  %115 = bitcast %struct.patient* %114 to i8*
  %116 = bitcast %struct.patient* %11 to i8*
  call void @llvm.memcpy.p0i8.p0i8.i64(i8* align 16 %115, i8* align 4 %116, i64 16, i1 false)
  br label %117

117:                                              ; preds = %96, %83
  br label %118

118:                                              ; preds = %117
  %119 = load i32, i32* %5, align 4
  %120 = add nsw i32 %119, -1
  store i32 %120, i32* %5, align 4
  br label %79

121:                                              ; preds = %79
  br label %122

122:                                              ; preds = %121
  %123 = load i32, i32* %3, align 4
  %124 = add nsw i32 %123, 1
  store i32 %124, i32* %3, align 4
  br label %73

125:                                              ; preds = %73
  store i32 0, i32* %3, align 4
  br label %126

126:                                              ; preds = %138, %125
  %127 = load i32, i32* %3, align 4
  %128 = load i32, i32* %6, align 4
  %129 = add nsw i32 %128, 1
  %130 = icmp slt i32 %127, %129
  br i1 %130, label %131, label %141

131:                                              ; preds = %126
  %132 = load i32, i32* %3, align 4
  %133 = sext i32 %132 to i64
  %134 = getelementptr inbounds [100 x %struct.patient], [100 x %struct.patient]* %8, i64 0, i64 %133
  %135 = getelementptr inbounds %struct.patient, %struct.patient* %134, i32 0, i32 1
  %136 = getelementptr inbounds [10 x i8], [10 x i8]* %135, i64 0, i64 0
  %137 = call i32 (i8*, ...) @printf(i8* getelementptr inbounds ([4 x i8], [4 x i8]* @.str.2, i64 0, i64 0), i8* %136)
  br label %138

138:                                              ; preds = %131
  %139 = load i32, i32* %3, align 4
  %140 = add nsw i32 %139, 1
  store i32 %140, i32* %3, align 4
  br label %126

141:                                              ; preds = %126
  store i32 0, i32* %3, align 4
  br label %142

142:                                              ; preds = %153, %141
  %143 = load i32, i32* %3, align 4
  %144 = load i32, i32* %4, align 4
  %145 = icmp slt i32 %143, %144
  br i1 %145, label %146, label %156

146:                                              ; preds = %142
  %147 = load i32, i32* %3, align 4
  %148 = sext i32 %147 to i64
  %149 = getelementptr inbounds [100 x %struct.patient], [100 x %struct.patient]* %9, i64 0, i64 %148
  %150 = getelementptr inbounds %struct.patient, %struct.patient* %149, i32 0, i32 1
  %151 = getelementptr inbounds [10 x i8], [10 x i8]* %150, i64 0, i64 0
  %152 = call i32 (i8*, ...) @printf(i8* getelementptr inbounds ([4 x i8], [4 x i8]* @.str.2, i64 0, i64 0), i8* %151)
  br label %153

153:                                              ; preds = %146
  %154 = load i32, i32* %3, align 4
  %155 = add nsw i32 %154, 1
  store i32 %155, i32* %3, align 4
  br label %142

156:                                              ; preds = %142
  ret void
}

declare dso_local i32 @__isoc99_scanf(i8*, ...) #1

; Function Attrs: argmemonly nounwind willreturn
declare void @llvm.memcpy.p0i8.p0i8.i64(i8* noalias nocapture writeonly, i8* noalias nocapture readonly, i64, i1 immarg) #2

declare dso_local i32 @printf(i8*, ...) #1


!llvm.module.flags = !{!0}
!llvm.ident = !{!1}

!0 = !{i32 1, !"wchar_size", i32 4}
!1 = !{!"clang version 10.0.0-4ubuntu1 "}
